; Function Attrs: mustprogress nounwind uwtable
define internal void @_ZN5vcpkg12_GLOBAL__N_119OverlayProviderImplD2Ev(ptr noundef nonnull align 8 dereferenceable(88) %0) unnamed_addr #5 align 2 personality ptr @__gxx_personality_v0 {
  store ptr getelementptr inbounds ({ [6 x ptr] }, ptr @_ZTVN5vcpkg12_GLOBAL__N_119OverlayProviderImplE, i64 0, i32 0, i64 2), ptr %0, align 8
  %2 = getelementptr inbounds i8, ptr %0, i64 40
  %3 = getelementptr inbounds i8, ptr %0, i64 56
  %4 = load ptr, ptr %3, align 8
  invoke void @_ZNSt8_Rb_treeINSt7__cxx1112basic_stringIcSt11char_traitsIcESaIcEEESt4pairIKS5_N5vcpkg8OptionalINS8_28SourceControlFileAndLocationEEEESt10_Select1stISC_ESt4lessIvESaISC_EE8_M_eraseEPSt13_Rb_tree_nodeISC_E(ptr noundef nonnull align 8 dereferenceable(48) %2, ptr noundef %4)
          to label %_ZNSt3mapINSt7__cxx1112basic_stringIcSt11char_traitsIcESaIcEEEN5vcpkg8OptionalINS6_28SourceControlFileAndLocationEEESt4lessIvESaISt4pairIKS5_S9_EEED2Ev.exit unwind label %5

5:                                                ; preds = %1
  %6 = landingpad { ptr, i32 }
          catch ptr null
  %7 = extractvalue { ptr, i32 } %6, 0
  tail call void @__clang_call_terminate(ptr %7) #22
  unreachable

_ZNSt3mapINSt7__cxx1112basic_stringIcSt11char_traitsIcESaIcEEEN5vcpkg8OptionalINS6_28SourceControlFileAndLocationEEESt4lessIvESaISt4pairIKS5_S9_EEED2Ev.exit: ; preds = %1
  %8 = getelementptr inbounds i8, ptr %0, i64 16
  %9 = load ptr, ptr %8, align 8
  %10 = getelementptr inbounds i8, ptr %0, i64 24
  %11 = load ptr, ptr %10, align 8
  %.not4.i.i.i.i = icmp eq ptr %9, %11
  br i1 %.not4.i.i.i.i, label %_ZSt8_DestroyIPN5vcpkg4PathES1_EvT_S3_RSaIT0_E.exit.i, label %.lr.ph.i.i.i.i

.lr.ph.i.i.i.i:                                   ; preds = %_ZNSt3mapINSt7__cxx1112basic_stringIcSt11char_traitsIcESaIcEEEN5vcpkg8OptionalINS6_28SourceControlFileAndLocationEEESt4lessIvESaISt4pairIKS5_S9_EEED2Ev.exit, %.lr.ph.i.i.i.i
  %.05.i.i.i.i = phi ptr [ %12, %.lr.ph.i.i.i.i ], [ %9, %_ZNSt3mapINSt7__cxx1112basic_stringIcSt11char_traitsIcESaIcEEEN5vcpkg8OptionalINS6_28SourceControlFileAndLocationEEESt4lessIvESaISt4pairIKS5_S9_EEED2Ev.exit ]
  tail call void @_ZNSt7__cxx1112basic_stringIcSt11char_traitsIcESaIcEED1Ev(ptr noundef nonnull align 8 dereferenceable(32) %.05.i.i.i.i) #17
  %12 = getelementptr inbounds i8, ptr %.05.i.i.i.i, i64 32
  %.not.i.i.i.i = icmp eq ptr %12, %11
  br i1 %.not.i.i.i.i, label %_ZSt8_DestroyIPN5vcpkg4PathES1_EvT_S3_RSaIT0_E.exitthread-pre-split.i, label %.lr.ph.i.i.i.i, !llvm.loop !182

_ZSt8_DestroyIPN5vcpkg4PathES1_EvT_S3_RSaIT0_E.exitthread-pre-split.i: ; preds = %.lr.ph.i.i.i.i
  %.pr.i = load ptr, ptr %8, align 8
  br label %_ZSt8_DestroyIPN5vcpkg4PathES1_EvT_S3_RSaIT0_E.exit.i

_ZSt8_DestroyIPN5vcpkg4PathES1_EvT_S3_RSaIT0_E.exit.i: ; preds = %_ZSt8_DestroyIPN5vcpkg4PathES1_EvT_S3_RSaIT0_E.exitthread-pre-split.i, %_ZNSt3mapINSt7__cxx1112basic_stringIcSt11char_traitsIcESaIcEEEN5vcpkg8OptionalINS6_28SourceControlFileAndLocationEEESt4lessIvESaISt4pairIKS5_S9_EEED2Ev.exit
  %13 = phi ptr [ %.pr.i, %_ZSt8_DestroyIPN5vcpkg4PathES1_EvT_S3_RSaIT0_E.exitthread-pre-split.i ], [ %9, %_ZNSt3mapINSt7__cxx1112basic_stringIcSt11char_traitsIcESaIcEEEN5vcpkg8OptionalINS6_28SourceControlFileAndLocationEEESt4lessIvESaISt4pairIKS5_S9_EEED2Ev.exit ]
  %.not.i.i.i = icmp eq ptr %13, null
  br i1 %.not.i.i.i, label %_ZNSt6vectorIN5vcpkg4PathESaIS1_EED2Ev.exit, label %14

14:                                               ; preds = %_ZSt8_DestroyIPN5vcpkg4PathES1_EvT_S3_RSaIT0_E.exit.i
  tail call void @_ZdlPv(ptr noundef nonnull %13) #20
  br label %_ZNSt6vectorIN5vcpkg4PathESaIS1_EED2Ev.exit

_ZNSt6vectorIN5vcpkg4PathESaIS1_EED2Ev.exit:      ; preds = %_ZSt8_DestroyIPN5vcpkg4PathES1_EvT_S3_RSaIT0_E.exit.i, %14
  ret void
}